target datalayout = "e-m:e-p270:32:32-p271:32:32-p272:64:64-i64:64-i128:128-f80:128-n8:16:32:64-S128"
target triple = "x86_64-pc-linux-gnu"

%struct.procfs_dir_priv_s = type { %struct.fs_dirent_s, i8, i16, i16, ptr }
%struct.fs_dirent_s = type { ptr, ptr }
%struct.procfs_level1_s = type { %struct.procfs_dir_priv_s, i8, i8, i16, ptr }

; Function Attrs: nounwind uwtable
define internal i32 @procfs_rewinddir(ptr noundef %0, ptr noundef %1) #0 {
  %3 = alloca ptr, align 8
  %4 = alloca ptr, align 8
  %5 = alloca ptr, align 8
  store ptr %0, ptr %3, align 8
  store ptr %1, ptr %4, align 8
  %6 = load ptr, ptr %4, align 8
  store ptr %6, ptr %5, align 8
  %7 = load ptr, ptr %5, align 8
  %8 = getelementptr inbounds %struct.procfs_dir_priv_s, ptr %7, i32 0, i32 1
  %9 = load i8, ptr %8, align 8
  %10 = zext i8 %9 to i32
  %11 = icmp sgt i32 %10, 0
  br i1 %11, label %12, label %23

12:                                               ; preds = %2
  %13 = load ptr, ptr %5, align 8
  %14 = getelementptr inbounds %struct.procfs_dir_priv_s, ptr %13, i32 0, i32 4
  %15 = load ptr, ptr %14, align 8
  %16 = icmp eq ptr %15, null
  br i1 %16, label %17, label %23

17:                                               ; preds = %12
  %18 = load ptr, ptr %5, align 8
  %19 = getelementptr inbounds %struct.procfs_level1_s, ptr %18, i32 0, i32 3
  %20 = load i16, ptr %19, align 2
  %21 = load ptr, ptr %5, align 8
  %22 = getelementptr inbounds %struct.procfs_dir_priv_s, ptr %21, i32 0, i32 2
  store i16 %20, ptr %22, align 2
  br label %26

23:                                               ; preds = %12, %2
  %24 = load ptr, ptr %5, align 8
  %25 = getelementptr inbounds %struct.procfs_dir_priv_s, ptr %24, i32 0, i32 2
  store i16 0, ptr %25, align 2
  br label %26

26:                                               ; preds = %23, %17
  ret i32 0
}