; Function Attrs: mustprogress nofree norecurse nosync nounwind willreturn memory(argmem: readwrite) uwtable
define internal noundef i32 @procfs_rewinddir(ptr readnone captures(none) %0, ptr noundef captures(none) initializes((18, 20)) %1) #4 {
  %3 = getelementptr inbounds nuw i8, ptr %1, i64 16
  %4 = load i8, ptr %3, align 8
  %.not = icmp eq i8 %4, 0
  br i1 %.not, label %12, label %5

5:                                                ; preds = %2
  %6 = getelementptr inbounds nuw i8, ptr %1, i64 24
  %7 = load ptr, ptr %6, align 8
  %8 = icmp eq ptr %7, null
  br i1 %8, label %9, label %12

9:                                                ; preds = %5
  %10 = getelementptr inbounds nuw i8, ptr %1, i64 34
  %11 = load i16, ptr %10, align 2
  br label %12

12:                                               ; preds = %2, %5, %9
  %.sink = phi i16 [ %11, %9 ], [ 0, %5 ], [ 0, %2 ]
  %13 = getelementptr inbounds nuw i8, ptr %1, i64 18
  store i16 %.sink, ptr %13, align 2
  ret i32 0
}